; Function Attrs: mustprogress uwtable
define noundef zeroext i1 @_ZN5Ipopt20AugRestoSystemSolver14InitializeImplERKNS_11OptionsListERKNSt7__cxx1112basic_stringIcSt11char_traitsIcESaIcEEE(ptr nocapture noundef nonnull readonly align 8 dereferenceable(281) %0, ptr noundef nonnull align 8 dereferenceable(112) %1, ptr noundef nonnull align 8 dereferenceable(32) %2) unnamed_addr #4 align 2 {
  %4 = getelementptr inbounds i8, ptr %0, i64 280
  %5 = load i8, ptr %4, align 8
  %6 = and i8 %5, 1
  %.not = icmp eq i8 %6, 0
  br i1 %.not, label %7, label %19

7:                                                ; preds = %3
  %8 = getelementptr inbounds i8, ptr %0, i64 272
  %9 = load ptr, ptr %8, align 8
  %10 = getelementptr inbounds i8, ptr %0, i64 16
  %11 = load ptr, ptr %10, align 8
  %12 = getelementptr inbounds i8, ptr %0, i64 24
  %13 = load ptr, ptr %12, align 8
  %14 = getelementptr inbounds i8, ptr %0, i64 32
  %15 = load ptr, ptr %14, align 8
  %16 = getelementptr inbounds i8, ptr %0, i64 40
  %17 = load ptr, ptr %16, align 8
  %18 = tail call noundef zeroext i1 @_ZN5Ipopt23AlgorithmStrategyObject10InitializeERKNS_10JournalistERNS_8IpoptNLPERNS_9IpoptDataERNS_25IpoptCalculatedQuantitiesERKNS_11OptionsListERKNSt7__cxx1112basic_stringIcSt11char_traitsIcESaIcEEE(ptr noundef nonnull align 8 dereferenceable(49) %9, ptr noundef nonnull align 8 dereferenceable(40) %11, ptr noundef nonnull align 8 dereferenceable(24) %13, ptr noundef nonnull align 8 dereferenceable(2232) %15, ptr noundef nonnull align 8 dereferenceable(2185) %17, ptr noundef nonnull align 8 dereferenceable(112) %1, ptr noundef nonnull align 8 dereferenceable(32) %2)
  br label %19

19:                                               ; preds = %7, %3
  %.0 = phi i1 [ true, %3 ], [ %18, %7 ]
  ret i1 %.0
}